target datalayout = "e-m:e-p270:32:32-p271:32:32-p272:64:64-i64:64-i128:128-f80:128-n8:16:32:64-S128"
target triple = "x86_64-pc-linux-gnu"

%struct.V360Context = type { ptr, i32, i32, i32, i32, i32, i32, i32, ptr, ptr, ptr, ptr, ptr, [6 x i32], [6 x i32], [6 x i32], [6 x i32], [3 x i32], i32, i32, float, float, i32, i32, float, float, float, float, float, i32, i32, i32, i32, i32, i32, i32, float, float, float, float, float, float, [2 x float], [2 x float], [2 x [4 x float]], [3 x float], i32, i32, i32, i32, [4 x i32], [4 x i32], [4 x i32], [4 x i32], [4 x i32], [4 x i32], [4 x i32], [4 x i32], [4 x i32], [4 x i32], [4 x i32], i32, i32, i32, i32, i32, i32, ptr, [4 x i32], ptr, ptr, ptr, ptr, ptr }

; Function Attrs: alwaysinline nounwind uwtable
define internal float @rescale(i32 noundef %0, float noundef %1) #12 {
  %3 = alloca i32, align 4
  %4 = alloca float, align 4
  store i32 %0, ptr %3, align 4, !tbaa !9
  store float %1, ptr %4, align 4, !tbaa !99
  %5 = load i32, ptr %3, align 4, !tbaa !9
  %6 = sitofp i32 %5 to float
  %7 = call nsz float @llvm.fmuladd.f32(float 2.000000e+00, float %6, float 1.000000e+00)
  %8 = load float, ptr %4, align 4, !tbaa !99
  %9 = fdiv nsz float %7, %8
  %10 = fsub nsz float %9, 1.000000e+00
  ret float %10
}

; Function Attrs: nounwind uwtable
define internal i32 @cube3x2_to_xyz(ptr noundef %0, i32 noundef %1, i32 noundef %2, i32 noundef %3, i32 noundef %4, ptr noundef %5) #0 {
  %7 = alloca ptr, align 8
  %8 = alloca i32, align 4
  %9 = alloca i32, align 4
  %10 = alloca i32, align 4
  %11 = alloca i32, align 4
  %12 = alloca ptr, align 8
  %13 = alloca float, align 4
  %14 = alloca float, align 4
  %15 = alloca float, align 4
  %16 = alloca float, align 4
  %17 = alloca i32, align 4
  %18 = alloca i32, align 4
  %19 = alloca i32, align 4
  %20 = alloca i32, align 4
  %21 = alloca i32, align 4
  %22 = alloca i32, align 4
  %23 = alloca i32, align 4
  %24 = alloca float, align 4
  %25 = alloca float, align 4
  store ptr %0, ptr %7, align 8, !tbaa !4
  store i32 %1, ptr %8, align 4, !tbaa !9
  store i32 %2, ptr %9, align 4, !tbaa !9
  store i32 %3, ptr %10, align 4, !tbaa !9
  store i32 %4, ptr %11, align 4, !tbaa !9
  store ptr %5, ptr %12, align 8, !tbaa !188
  call void @llvm.lifetime.start.p0(i64 4, ptr %13) #13
  %26 = load ptr, ptr %7, align 8, !tbaa !4
  %27 = getelementptr inbounds nuw %struct.V360Context, ptr %26, i32 0, i32 23
  %28 = load i32, ptr %27, align 8, !tbaa !244
  %29 = icmp sgt i32 %28, 0
  br i1 %29, label %30, label %40

30:                                               ; preds = %6
  %31 = load ptr, ptr %7, align 8, !tbaa !4
  %32 = getelementptr inbounds nuw %struct.V360Context, ptr %31, i32 0, i32 23
  %33 = load i32, ptr %32, align 8, !tbaa !244
  %34 = sitofp i32 %33 to float
  %35 = load i32, ptr %10, align 4, !tbaa !9
  %36 = sitofp i32 %35 to float
  %37 = fdiv nsz float %36, 3.000000e+00
  %38 = fdiv nsz float %34, %37
  %39 = fsub nsz float 1.000000e+00, %38
  br label %45

40:                                               ; preds = %6
  %41 = load ptr, ptr %7, align 8, !tbaa !4
  %42 = getelementptr inbounds nuw %struct.V360Context, ptr %41, i32 0, i32 21
  %43 = load float, ptr %42, align 8, !tbaa !245
  %44 = fsub nsz float 1.000000e+00, %43
  br label %45

45:                                               ; preds = %40, %30
  %46 = phi nsz float [ %39, %30 ], [ %44, %40 ]
  store float %46, ptr %13, align 4, !tbaa !99
  call void @llvm.lifetime.start.p0(i64 4, ptr %14) #13
  %47 = load ptr, ptr %7, align 8, !tbaa !4
  %48 = getelementptr inbounds nuw %struct.V360Context, ptr %47, i32 0, i32 23
  %49 = load i32, ptr %48, align 8, !tbaa !244
  %50 = icmp sgt i32 %49, 0
  br i1 %50, label %51, label %61

51:                                               ; preds = %45
  %52 = load ptr, ptr %7, align 8, !tbaa !4
  %53 = getelementptr inbounds nuw %struct.V360Context, ptr %52, i32 0, i32 23
  %54 = load i32, ptr %53, align 8, !tbaa !244
  %55 = sitofp i32 %54 to float
  %56 = load i32, ptr %11, align 4, !tbaa !9
  %57 = sitofp i32 %56 to float
  %58 = fdiv nsz float %57, 2.000000e+00
  %59 = fdiv nsz float %55, %58
  %60 = fsub nsz float 1.000000e+00, %59
  br label %66

61:                                               ; preds = %45
  %62 = load ptr, ptr %7, align 8, !tbaa !4
  %63 = getelementptr inbounds nuw %struct.V360Context, ptr %62, i32 0, i32 21
  %64 = load float, ptr %63, align 8, !tbaa !245
  %65 = fsub nsz float 1.000000e+00, %64
  br label %66

66:                                               ; preds = %61, %51
  %67 = phi nsz float [ %60, %51 ], [ %65, %61 ]
  store float %67, ptr %14, align 4, !tbaa !99
  call void @llvm.lifetime.start.p0(i64 4, ptr %15) #13
  %68 = load i32, ptr %10, align 4, !tbaa !9
  %69 = sitofp i32 %68 to float
  %70 = fdiv nsz float %69, 3.000000e+00
  store float %70, ptr %15, align 4, !tbaa !99
  call void @llvm.lifetime.start.p0(i64 4, ptr %16) #13
  %71 = load i32, ptr %11, align 4, !tbaa !9
  %72 = sitofp i32 %71 to float
  %73 = fdiv nsz float %72, 2.000000e+00
  store float %73, ptr %16, align 4, !tbaa !99
  call void @llvm.lifetime.start.p0(i64 4, ptr %17) #13
  %74 = load i32, ptr %8, align 4, !tbaa !9
  %75 = sitofp i32 %74 to float
  %76 = load float, ptr %15, align 4, !tbaa !99
  %77 = fdiv nsz float %75, %76
  %78 = call nsz float @llvm.floor.f32(float %77)
  %79 = fptosi float %78 to i32
  store i32 %79, ptr %17, align 4, !tbaa !9
  call void @llvm.lifetime.start.p0(i64 4, ptr %18) #13
  %80 = load i32, ptr %9, align 4, !tbaa !9
  %81 = sitofp i32 %80 to float
  %82 = load float, ptr %16, align 4, !tbaa !99
  %83 = fdiv nsz float %81, %82
  %84 = call nsz float @llvm.floor.f32(float %83)
  %85 = fptosi float %84 to i32
  store i32 %85, ptr %18, align 4, !tbaa !9
  call void @llvm.lifetime.start.p0(i64 4, ptr %19) #13
  %86 = load i32, ptr %17, align 4, !tbaa !9
  %87 = load i32, ptr %18, align 4, !tbaa !9
  %88 = mul nsw i32 3, %87
  %89 = add nsw i32 %86, %88
  store i32 %89, ptr %19, align 4, !tbaa !9
  call void @llvm.lifetime.start.p0(i64 4, ptr %20) #13
  %90 = load float, ptr %15, align 4, !tbaa !99
  %91 = load i32, ptr %17, align 4, !tbaa !9
  %92 = sitofp i32 %91 to float
  %93 = fmul nsz float %90, %92
  %94 = call nsz float @llvm.ceil.f32(float %93)
  %95 = fptosi float %94 to i32
  store i32 %95, ptr %20, align 4, !tbaa !9
  call void @llvm.lifetime.start.p0(i64 4, ptr %21) #13
  %96 = load float, ptr %16, align 4, !tbaa !99
  %97 = load i32, ptr %18, align 4, !tbaa !9
  %98 = sitofp i32 %97 to float
  %99 = fmul nsz float %96, %98
  %100 = call nsz float @llvm.ceil.f32(float %99)
  %101 = fptosi float %100 to i32
  store i32 %101, ptr %21, align 4, !tbaa !9
  call void @llvm.lifetime.start.p0(i64 4, ptr %22) #13
  %102 = load float, ptr %15, align 4, !tbaa !99
  %103 = load i32, ptr %17, align 4, !tbaa !9
  %104 = add nsw i32 %103, 1
  %105 = sitofp i32 %104 to float
  %106 = fmul nsz float %102, %105
  %107 = call nsz float @llvm.ceil.f32(float %106)
  %108 = load i32, ptr %20, align 4, !tbaa !9
  %109 = sitofp i32 %108 to float
  %110 = fsub nsz float %107, %109
  %111 = fptosi float %110 to i32
  store i32 %111, ptr %22, align 4, !tbaa !9
  call void @llvm.lifetime.start.p0(i64 4, ptr %23) #13
  %112 = load float, ptr %16, align 4, !tbaa !99
  %113 = load i32, ptr %18, align 4, !tbaa !9
  %114 = add nsw i32 %113, 1
  %115 = sitofp i32 %114 to float
  %116 = fmul nsz float %112, %115
  %117 = call nsz float @llvm.ceil.f32(float %116)
  %118 = load i32, ptr %21, align 4, !tbaa !9
  %119 = sitofp i32 %118 to float
  %120 = fsub nsz float %117, %119
  %121 = fptosi float %120 to i32
  store i32 %121, ptr %23, align 4, !tbaa !9
  call void @llvm.lifetime.start.p0(i64 4, ptr %24) #13
  %122 = load i32, ptr %8, align 4, !tbaa !9
  %123 = load i32, ptr %20, align 4, !tbaa !9
  %124 = sub nsw i32 %122, %123
  %125 = load i32, ptr %22, align 4, !tbaa !9
  %126 = sitofp i32 %125 to float
  %127 = call nsz float @rescale(i32 noundef %124, float noundef %126)
  store float %127, ptr %24, align 4, !tbaa !99
  call void @llvm.lifetime.start.p0(i64 4, ptr %25) #13
  %128 = load i32, ptr %9, align 4, !tbaa !9
  %129 = load i32, ptr %21, align 4, !tbaa !9
  %130 = sub nsw i32 %128, %129
  %131 = load i32, ptr %23, align 4, !tbaa !9
  %132 = sitofp i32 %131 to float
  %133 = call nsz float @rescale(i32 noundef %130, float noundef %132)
  store float %133, ptr %25, align 4, !tbaa !99
  %134 = load ptr, ptr %7, align 8, !tbaa !4
  %135 = load float, ptr %24, align 4, !tbaa !99
  %136 = load float, ptr %25, align 4, !tbaa !99
  %137 = load i32, ptr %19, align 4, !tbaa !9
  %138 = load ptr, ptr %12, align 8, !tbaa !188
  %139 = load float, ptr %13, align 4, !tbaa !99
  %140 = load float, ptr %14, align 4, !tbaa !99
  call void @cube_to_xyz(ptr noundef %134, float noundef %135, float noundef %136, i32 noundef %137, ptr noundef %138, float noundef %139, float noundef %140)
  call void @llvm.lifetime.end.p0(i64 4, ptr %25) #13
  call void @llvm.lifetime.end.p0(i64 4, ptr %24) #13
  call void @llvm.lifetime.end.p0(i64 4, ptr %23) #13
  call void @llvm.lifetime.end.p0(i64 4, ptr %22) #13
  call void @llvm.lifetime.end.p0(i64 4, ptr %21) #13
  call void @llvm.lifetime.end.p0(i64 4, ptr %20) #13
  call void @llvm.lifetime.end.p0(i64 4, ptr %19) #13
  call void @llvm.lifetime.end.p0(i64 4, ptr %18) #13
  call void @llvm.lifetime.end.p0(i64 4, ptr %17) #13
  call void @llvm.lifetime.end.p0(i64 4, ptr %16) #13
  call void @llvm.lifetime.end.p0(i64 4, ptr %15) #13
  call void @llvm.lifetime.end.p0(i64 4, ptr %14) #13
  call void @llvm.lifetime.end.p0(i64 4, ptr %13) #13
  ret i32 1
}