; Function Attrs: nounwind uwtable
define internal noundef i32 @cube3x2_to_xyz(ptr noundef readonly captures(none) %0, i32 noundef %1, i32 noundef %2, i32 noundef %3, i32 noundef %4, ptr noundef writeonly captures(none) %5) #4 {
  %7 = getelementptr inbounds nuw i8, ptr %0, i64 208
  %8 = load i32, ptr %7, align 8, !tbaa !233
  %9 = icmp sgt i32 %8, 0
  %10 = sitofp i32 %4 to float
  %11 = fmul nsz float %10, 5.000000e-01
  br i1 %9, label %12, label %18

12:                                               ; preds = %6
  %13 = uitofp nneg i32 %8 to float
  %14 = sitofp i32 %3 to float
  %15 = fdiv nsz float %14, 3.000000e+00
  %16 = fdiv nsz float %13, %15
  %17 = fdiv nsz float %13, %11
  br label %21

18:                                               ; preds = %6
  %19 = getelementptr inbounds nuw i8, ptr %0, i64 200
  %20 = load float, ptr %19, align 8, !tbaa !234
  %.pre = sitofp i32 %3 to float
  %.pre43 = fdiv nsz float %.pre, 3.000000e+00
  br label %21

21:                                               ; preds = %18, %12
  %.pre-phi44 = phi float [ %.pre43, %18 ], [ %15, %12 ]
  %.pn41 = phi float [ %20, %18 ], [ %16, %12 ]
  %.pn39 = phi float [ %20, %18 ], [ %17, %12 ]
  %22 = fsub nsz float 1.000000e+00, %.pn39
  %23 = fsub nsz float 1.000000e+00, %.pn41
  %24 = sitofp i32 %1 to float
  %25 = fdiv nsz float %24, %.pre-phi44
  %26 = tail call nsz float @llvm.floor.f32(float %25)
  %27 = fptosi float %26 to i32
  %28 = sitofp i32 %2 to float
  %29 = fdiv nsz float %28, %11
  %30 = tail call nsz float @llvm.floor.f32(float %29)
  %31 = fptosi float %30 to i32
  %32 = mul nsw i32 %31, 3
  %33 = add nsw i32 %32, %27
  %34 = sitofp i32 %27 to float
  %35 = fmul nsz float %.pre-phi44, %34
  %36 = tail call nsz float @llvm.ceil.f32(float %35)
  %37 = fptosi float %36 to i32
  %38 = sitofp i32 %31 to float
  %39 = fmul nsz float %11, %38
  %40 = tail call nsz float @llvm.ceil.f32(float %39)
  %41 = fptosi float %40 to i32
  %42 = add nsw i32 %27, 1
  %43 = sitofp i32 %42 to float
  %44 = fmul nsz float %.pre-phi44, %43
  %45 = tail call nsz float @llvm.ceil.f32(float %44)
  %46 = sitofp i32 %37 to float
  %47 = fsub nsz float %45, %46
  %48 = fptosi float %47 to i32
  %49 = add nsw i32 %31, 1
  %50 = sitofp i32 %49 to float
  %51 = fmul nsz float %11, %50
  %52 = tail call nsz float @llvm.ceil.f32(float %51)
  %53 = sitofp i32 %41 to float
  %54 = fsub nsz float %52, %53
  %55 = fptosi float %54 to i32
  %56 = sub nsw i32 %1, %37
  %57 = sitofp i32 %48 to float
  %58 = sitofp i32 %56 to float
  %59 = tail call nsz float @llvm.fmuladd.f32(float %58, float 2.000000e+00, float 1.000000e+00)
  %60 = fdiv nsz float %59, %57
  %61 = fadd nsz float %60, -1.000000e+00
  %62 = sub nsw i32 %2, %41
  %63 = sitofp i32 %55 to float
  %64 = sitofp i32 %62 to float
  %65 = tail call nsz float @llvm.fmuladd.f32(float %64, float 2.000000e+00, float 1.000000e+00)
  %66 = fdiv nsz float %65, %63
  %67 = fadd nsz float %66, -1.000000e+00
  tail call fastcc void @cube_to_xyz(ptr noundef nonnull %0, float noundef %61, float noundef %67, i32 noundef %33, ptr noundef %5, float noundef %23, float noundef %22)
  ret i32 1
}